; Function Attrs: nounwind uwtable
define ptr @l_Lean_Compiler_LCNF_FunDecl_mapFVarM___rarg___lambda__1(ptr noundef %0, ptr noundef %1, ptr noundef %2, ptr noundef %3, ptr noundef %4) #0 {
  tail call void @lean_inc_heartbeat() #4
  %6 = tail call noalias ptr @mi_malloc_small(i64 noundef 56) #4
  %7 = icmp eq ptr %6, null
  br i1 %7, label %8, label %lean_alloc_closure.exit

8:                                                ; preds = %5
  tail call void @lean_internal_panic_out_of_memory() #5
  unreachable

lean_alloc_closure.exit:                          ; preds = %5
  %9 = getelementptr inbounds nuw i8, ptr %6, i64 4
  store i32 1, ptr %6, align 4, !tbaa !8
  store i32 -184549320, ptr %9, align 4
  %10 = getelementptr inbounds nuw i8, ptr %6, i64 8
  store ptr @l___private_Lean_Compiler_LCNF_CompilerM_0__Lean_Compiler_LCNF_updateFunDeclImp___boxed, ptr %10, align 8, !tbaa !4
  %11 = getelementptr inbounds nuw i8, ptr %6, i64 16
  store i16 9, ptr %11, align 8, !tbaa !11
  %12 = getelementptr inbounds nuw i8, ptr %6, i64 18
  store i16 4, ptr %12, align 2, !tbaa !11
  %13 = getelementptr inbounds nuw i8, ptr %6, i64 24
  store ptr %0, ptr %13, align 8, !tbaa !4
  %14 = getelementptr inbounds nuw i8, ptr %6, i64 32
  store ptr %1, ptr %14, align 8, !tbaa !4
  %15 = getelementptr inbounds nuw i8, ptr %6, i64 40
  store ptr %2, ptr %15, align 8, !tbaa !4
  %16 = getelementptr inbounds nuw i8, ptr %6, i64 48
  store ptr %4, ptr %16, align 8, !tbaa !4
  %17 = tail call ptr @lean_apply_2(ptr noundef %3, ptr noundef nonnull inttoptr (i64 1 to ptr), ptr noundef nonnull %6) #4
  ret ptr %17
}